target datalayout = "e-m:e-p270:32:32-p271:32:32-p272:64:64-i64:64-i128:128-f80:128-n8:16:32:64-S128"
target triple = "x86_64-pc-linux-gnu"

%struct.CXzStream = type { i16, i64, i64, ptr, i64 }
%struct.CXzBlockSizes = type { i64, i64 }

; Function Attrs: nounwind uwtable
define i64 @Xz_GetUnpackSize(ptr noundef %0) #0 {
  %2 = alloca i64, align 8
  %3 = alloca ptr, align 8
  %4 = alloca i64, align 8
  %5 = alloca i64, align 8
  %6 = alloca i64, align 8
  store ptr %0, ptr %3, align 8
  store i64 0, ptr %4, align 8
  store i64 0, ptr %5, align 8
  br label %7

7:                                                ; preds = %29, %1
  %8 = load i64, ptr %5, align 8
  %9 = load ptr, ptr %3, align 8
  %10 = getelementptr inbounds %struct.CXzStream, ptr %9, i32 0, i32 1
  %11 = load i64, ptr %10, align 8
  %12 = icmp ult i64 %8, %11
  br i1 %12, label %13, label %32

13:                                               ; preds = %7
  %14 = load i64, ptr %4, align 8
  %15 = load ptr, ptr %3, align 8
  %16 = getelementptr inbounds %struct.CXzStream, ptr %15, i32 0, i32 3
  %17 = load ptr, ptr %16, align 8
  %18 = load i64, ptr %5, align 8
  %19 = getelementptr inbounds %struct.CXzBlockSizes, ptr %17, i64 %18
  %20 = getelementptr inbounds %struct.CXzBlockSizes, ptr %19, i32 0, i32 0
  %21 = load i64, ptr %20, align 8
  %22 = add i64 %14, %21
  store i64 %22, ptr %6, align 8
  %23 = load i64, ptr %6, align 8
  %24 = load i64, ptr %4, align 8
  %25 = icmp ult i64 %23, %24
  br i1 %25, label %26, label %27

26:                                               ; preds = %13
  store i64 -1, ptr %2, align 8
  br label %34

27:                                               ; preds = %13
  %28 = load i64, ptr %6, align 8
  store i64 %28, ptr %4, align 8
  br label %29

29:                                               ; preds = %27
  %30 = load i64, ptr %5, align 8
  %31 = add i64 %30, 1
  store i64 %31, ptr %5, align 8
  br label %7

32:                                               ; preds = %7
  %33 = load i64, ptr %4, align 8
  store i64 %33, ptr %2, align 8
  br label %34

34:                                               ; preds = %32, %26
  %35 = load i64, ptr %2, align 8
  ret i64 %35
}