; Function Attrs: nofree norecurse nosync nounwind memory(read, inaccessiblemem: none) uwtable
define i64 @Xz_GetUnpackSize(ptr noundef readonly captures(none) %0) local_unnamed_addr #2 {
  %2 = getelementptr inbounds nuw i8, ptr %0, i64 8
  %3 = load i64, ptr %2, align 8
  %.not = icmp eq i64 %3, 0
  br i1 %.not, label %._crit_edge, label %.lr.ph

.lr.ph:                                           ; preds = %1
  %4 = getelementptr inbounds nuw i8, ptr %0, i64 24
  %5 = load ptr, ptr %4, align 8
  br label %8

6:                                                ; preds = %8
  %7 = add nuw i64 %.01014, 1
  %exitcond.not = icmp eq i64 %7, %3
  br i1 %exitcond.not, label %._crit_edge, label %8

8:                                                ; preds = %.lr.ph, %6
  %.01014 = phi i64 [ 0, %.lr.ph ], [ %7, %6 ]
  %.01113 = phi i64 [ 0, %.lr.ph ], [ %11, %6 ]
  %9 = getelementptr inbounds %struct.CXzBlockSizes, ptr %5, i64 %.01014
  %10 = load i64, ptr %9, align 8
  %11 = add i64 %10, %.01113
  %12 = icmp ult i64 %11, %.01113
  br i1 %12, label %._crit_edge, label %6

._crit_edge:                                      ; preds = %8, %6, %1
  %.0 = phi i64 [ 0, %1 ], [ %11, %6 ], [ -1, %8 ]
  ret i64 %.0
}